(dp1
S'g_reads_fwd'
p2
I923
sS'total_frags'
p3
I6425653
sS'g_reads_rev'
p4
I2700180
sS'g_frags'
p5
I1716603
sS'n_flagstats'
p6
(dp7
S'chr_mismatch'
p8
F0
sS'duplicates'
p9
F0
sS'nr_read1'
p10
F4709050
sS'seq_paired'
p11
F9418100
sS'nr_read2'
p12
F4709050
sS'qc_fail'
p13
F9418100
sS'chr_mismatch_q5'
p14
F0
sS'nr_proper_with_mate'
p15
F4701738
ssS'g_flagstats'
p16
(dp17
g8
F118
sg9
F0
sg10
F1716603
sg11
F3433206
sg12
F1716603
sg13
F3433206
sg14
F64
sg15
F27586
ssS'n_frags'
p18
I4709050
s.