(dp1
S'g_reads_fwd'
p2
I1502
sS'total_frags'
p3
I11366225
sS'g_reads_rev'
p4
I4484328
sS'g_frags'
p5
I2737041
sS'n_flagstats'
p6
(dp7
S'chr_mismatch'
p8
F0
sS'duplicates'
p9
F0
sS'nr_read1'
p10
F8629184
sS'seq_paired'
p11
F17258368
sS'nr_read2'
p12
F8629184
sS'qc_fail'
p13
F17258368
sS'chr_mismatch_q5'
p14
F0
sS'nr_proper_with_mate'
p15
F9798748
ssS'g_flagstats'
p16
(dp17
g8
F202
sg9
F0
sg10
F2737041
sg11
F5474082
sg12
F2737041
sg13
F5474082
sg14
F67
sg15
F60990
ssS'n_frags'
p18
I8629184
s.