(dp1
S'g_reads_fwd'
p2
I4682
sS'total_frags'
p3
I10265967
sS'g_reads_rev'
p4
I3736844
sS'g_frags'
p5
I2280191
sS'n_flagstats'
p6
(dp7
S'chr_mismatch'
p8
F0
sS'duplicates'
p9
F0
sS'nr_read1'
p10
F7985776
sS'seq_paired'
p11
F15971552
sS'nr_read2'
p12
F7985776
sS'qc_fail'
p13
F15971552
sS'chr_mismatch_q5'
p14
F0
sS'nr_proper_with_mate'
p15
F9300304
ssS'g_flagstats'
p16
(dp17
g8
F170
sg9
F0
sg10
F2280191
sg11
F4560382
sg12
F2280191
sg13
F4560382
sg14
F144
sg15
F49802
ssS'n_frags'
p18
I7985776
s.