(dp1
S'g_reads_fwd'
p2
I3284
sS'total_frags'
p3
I6225241
sS'g_reads_rev'
p4
I2387416
sS'g_frags'
p5
I1497681
sS'n_flagstats'
p6
(dp7
S'chr_mismatch'
p8
F0
sS'duplicates'
p9
F0
sS'nr_read1'
p10
F4727560
sS'seq_paired'
p11
F9455120
sS'nr_read2'
p12
F4727560
sS'qc_fail'
p13
F9455120
sS'chr_mismatch_q5'
p14
F0
sS'nr_proper_with_mate'
p15
F5292608
ssS'g_flagstats'
p16
(dp17
g8
F684
sg9
F0
sg10
F1497681
sg11
F2995362
sg12
F1497681
sg13
F2995362
sg14
F190
sg15
F33368
ssS'n_frags'
p18
I4727560
s.